target datalayout = "e-m:e-p270:32:32-p271:32:32-p272:64:64-i64:64-i128:128-f80:128-n8:16:32:64-S128"
target triple = "x86_64-unknown-linux-gnu"

%struct.Coroutine = type { ptr, ptr, ptr, %struct.anon.3, i64, ptr, ptr, %struct.anon.4, %struct.anon.5, %struct.anon.6 }
%struct.anon.3 = type { ptr }
%struct.anon.4 = type { ptr }
%struct.anon.5 = type { ptr, ptr }
%struct.anon.6 = type { ptr }

@.str = private unnamed_addr constant [21 x i8] c"../qemu/util/async.c\00", align 1
@__func__.aio_co_wake = private unnamed_addr constant [12 x i8] c"aio_co_wake\00", align 1

; Function Attrs: nounwind sspstrong uwtable
define dso_local void @aio_co_wake(ptr noundef %co) #0 {
entry:
  %co.addr = alloca ptr, align 8
  %ctx = alloca ptr, align 8
  %tmp = alloca ptr, align 8
  %atomic-temp = alloca ptr, align 8
  store ptr %co, ptr %co.addr, align 8
  call void asm sideeffect "", "~{memory},~{dirflag},~{fpsr},~{flags}"() #11, !srcloc !19
  br label %while.cond

while.cond:                                       ; preds = %do.end, %entry
  br i1 false, label %while.body, label %while.end

while.body:                                       ; preds = %while.cond
  br label %do.body

do.body:                                          ; preds = %while.body
  call void @g_assertion_message_expr(ptr noundef null, ptr noundef @.str, i32 noundef 693, ptr noundef @__func__.aio_co_wake, ptr noundef null) #10
  unreachable

do.end:                                           ; No predecessors!
  br label %while.cond

while.end:                                        ; preds = %while.cond
  %0 = load ptr, ptr %co.addr, align 8
  %ctx1 = getelementptr inbounds %struct.Coroutine, ptr %0, i32 0, i32 5
  %1 = load atomic i64, ptr %ctx1 monotonic, align 8
  store i64 %1, ptr %atomic-temp, align 8
  %2 = load ptr, ptr %atomic-temp, align 8
  store ptr %2, ptr %tmp, align 8
  %3 = load ptr, ptr %tmp, align 8
  store ptr %3, ptr %ctx, align 8
  %4 = load ptr, ptr %ctx, align 8
  %5 = load ptr, ptr %co.addr, align 8
  call void @aio_co_enter(ptr noundef %4, ptr noundef %5)
  ret void
}