; Function Attrs: nounwind sspstrong uwtable
define dso_local void @aio_co_wake(ptr noundef %co) local_unnamed_addr #0 {
entry:
  tail call void asm sideeffect "", "~{memory},~{dirflag},~{fpsr},~{flags}"() #13, !srcloc !20
  %ctx1 = getelementptr inbounds nuw i8, ptr %co, i64 40
  %0 = load atomic i64, ptr %ctx1 monotonic, align 8
  %1 = inttoptr i64 %0 to ptr
  tail call void @aio_co_enter(ptr noundef %1, ptr noundef %co)
  ret void
}